$ fq -d pg_control -o flavour=pgproee12 d pg_control
      |00 01 02 03 04 05 06 07 08 09 0a 0b 0c 0d 0e 0f|0123456789abcdef|.{}: pg_control (pg_control)
0x0000|d8 09 ef 93 89 69 eb 62                        |.....i.b        |  system_identifier: 7127906874857294296
0x0000|                        b1 04 45 50            |        ..EP    |  pg_control_version: "Postgres Pro Enterprise 1201" (1346700465)
0x0000|                                    a1 eb 08 0c|            ....|  catalog_version_no: 201911201
0x0010|06 00 00 00                                    |....            |  state: "DB_IN_PRODUCTION" (6)
0x0010|            00 00 00 00                        |    ....        |  unknown0: raw bits
0x0010|                        db 6a eb 62 00 00 00 00|        .j.b....|  time: "Thu, 04 Aug 2022 06:44:43 UTC" (1659595483)
0x0020|b8 77 07 03 00 00 00 00                        |.w......        |  checkPoint: "0/30777B8" (50821048)
      |                                               |                |  checkPointCopy{}:
0x0020|                        68 77 07 03 00 00 00 00|        hw......|    redo: "0/3077768" (50820968)
0x0030|01 00 00 00                                    |....            |    ThisTimeLineID: 1
0x0030|            01 00 00 00                        |    ....        |    PrevTimeLineID: 1
0x0030|                        01                     |        .       |    fullPageWrites: 1
0x0040|db 34 0c 54 02 00 00 00                        |.4.T....        |    nextXid: 10000020699
0x0040|                        00 60 00 00            |        .`..    |    nextOid: 24576
0x0050|00 f2 05 2a 01 00 00 00                        |...*....        |    nextMulti: 5000000000
0x0050|                        00 00 00 00 00 00 00 00|        ........|    nextMultiOffset: 0
0x0060|e9 e5 0b 54 02 00 00 00                        |...T....        |    oldestXid: 10000000489
0x0060|                        01 00 00 00            |        ....    |    oldestXidDB: 1
0x0070|00 f2 05 2a 01 00 00 00                        |...*....        |    oldestMulti: 5000000000
0x0070|                        01 00 00 00            |        ....    |    oldestMultiDB: 1
0x0080|db 6a eb 62 00 00 00 00                        |.j.b....        |    time: "Thu, 04 Aug 2022 06:44:43 UTC" (1659595483)
0x0080|                        00 00 00 00 00 00 00 00|        ........|    oldestCommitTsXid: 0
0x0090|00 00 00 00 00 00 00 00                        |........        |    newestCommitTsXid: 0
0x0090|                        db 34 0c 54 02 00 00 00|        .4.T....|    oldestActiveXid: 10000020699
0x0030|                           00 00 00 00 00 00 00|         .......|  unknown1: raw bits
0x0040|                                    00 00 00 00|            ....|  unknown2: raw bits
0x0060|                                    00 00 00 00|            ....|  unknown3: raw bits
0x0070|                                    00 00 00 00|            ....|  unknown4: raw bits
0x00a0|e8 03 00 00 00 00 00 00                        |........        |  unloggedLSN: "0/3E8" (1000)
0x00a0|                        00 00 00 00 00 00 00 00|        ........|  minRecoveryPoint: "0/0" (0)
0x00b0|00 00 00 00                                    |....            |  minRecoveryPointTLI: 0
0x00b0|            00 00 00 00                        |    ....        |  unknown5: raw bits
0x00b0|                        00 00 00 00 00 00 00 00|        ........|  backupStartPoint: "0/0" (0)
0x00c0|00 00 00 00 00 00 00 00                        |........        |  backupEndPoint: "0/0" (0)
0x00c0|                        00                     |        .       |  backupEndRequired: 0
0x00c0|                           00 00 00            |         ...    |  unknown6: raw bits
0x00c0|                                    01 00 00 00|            ....|  wal_level: "WAL_LEVEL_REPLICA" (1)
0x00d0|00                                             |.               |  wal_log_hints: 0
0x00d0|   00 00 00                                    | ...            |  unknown7: raw bits
0x00d0|            8a 01 00 00                        |    ....        |  MaxConnections: 394
0x00d0|                        08 00 00 00            |        ....    |  max_worker_processes: 8
0x00d0|                                    0a 00 00 00|            ....|  max_wal_senders: 10
0x00e0|00 00 00 00                                    |....            |  max_prepared_xacts: 0
0x00e0|            40 00 00 00                        |    @...        |  max_locks_per_xact: 64
0x00e0|                        00                     |        .       |  track_commit_timestamp: 0
0x00e0|                           00 00 00            |         ...    |  unknown8: raw bits
0x00e0|                                    08 00 00 00|            ....|  maxAlign: 8
0x00f0|00 00 00 00 87 d6 32 41                        |......2A        |  floatFormat: 1.234567e+06
0x00f0|                        00 20 00 00            |        . ..    |  blcksz: 8192
0x00f0|                                    00 00 02 00|            ....|  relseg_size: 131072
0x0100|00 20 00 00                                    |. ..            |  xlog_blcksz: 8192
0x0100|            00 00 00 01                        |    ....        |  xlog_seg_size: 16777216
0x0100|                        40 00 00 00            |        @...    |  nameDataLen: 64
0x0100|                                    20 00 00 00|             ...|  indexMaxKeys: 32
0x0110|cc 07 00 00                                    |....            |  toast_max_chunk_size: 1996
0x0110|            00 08 00 00                        |    ....        |  loblksize: 2048
0x0110|                        01                     |        .       |  float4ByVal: 1
0x0110|                           01                  |         .      |  float8ByVal: 1
0x0110|                              00 00            |          ..    |  unknown9: raw bits
0x0110|                                    01 00 00 00|            ....|  data_checksum_version: 1
0x0120|0b db 53 d2 42 ff 02 95 74 e6 aa 87 ff 98 4b 67|..S.B...t.....Kg|  mock_authentication_nonce: "0bdb53d242ff029574e6aa87ff984b67e4a76678383559a..." (raw bits)
0x0130|e4 a7 66 78 38 35 59 a3 14 f2 65 01 9e 61 8c e4|..fx85Y...e..a..|
0x0140|3c 03 00 00                                    |<...            |  icu_version: "60.3.0.0" (828)
0x0140|            00 00 ff ff                        |    ....        |  pg_old_version: 4294901760
0x0140|                        01 00 00 00            |        ....    |  oldest_snapshot: 1
0x0140|                                    00 00 00 00|            ....|  recent_snapshot: 0
0x0150|00 00 00 00                                    |....            |  active_snapshot: 0
0x0150|            f4 4f d7 dd                        |    .O..        |  crc: 3721875444
0x0150|                        00 00 00 00 00 00 00 00|        ........|  unknown10: raw bits
0x0160|00 00 00 00 00 00 00 00 00 00 00 00 00 00 00 00|................|
*     |until 0x1fff.7 (end) (7848)                    |                |
