$ fq -d pgheap -o flavour=pgproee13 .Pages[0].PageHeaderData.pd_linp[0,-1] 16406
    |00 01 02 03 04 05 06 07 08 09 0a 0b 0c 0d 0e 0f|0123456789abcdef|.Pages[0].PageHeaderData.pd_linp[0]{}: ItemIdData
0x10|            b8 9f 60 00                        |    ..`.        |  lp_off: 8120
0x10|            b8 9f 60 00                        |    ..`.        |  lp_flags: "LP_NORMAL" (1)
0x10|            b8 9f 60 00                        |    ..`.        |  lp_len: 48
     |00 01 02 03 04 05 06 07 08 09 0a 0b 0c 0d 0e 0f|0123456789abcdef|.Pages[0].PageHeaderData.pd_linp[155]{}: ItemIdData
0x280|a8 82 60 00                                    |..`.            |  lp_off: 680
0x280|a8 82 60 00                                    |..`.            |  lp_flags: "LP_NORMAL" (1)
0x280|a8 82 60 00                                    |..`.            |  lp_len: 48
